; ModuleID = '29/1804.c'
source_filename = "29/1804.c"
target datalayout = "e-m:e-p270:32:32-p271:32:32-p272:64:64-i64:64-f80:128-n8:16:32:64-S128"
target triple = "x86_64-pc-linux-gnu"

@.str = private unnamed_addr constant [3 x i8] c"%d\00", align 1
@.str.1 = private unnamed_addr constant [5 x i8] c"%.3f\00", align 1
@.str.2 = private unnamed_addr constant [2 x i8] c"\0A\00", align 1

; Function Attrs: noinline nounwind uwtable
define dso_local i32 @main() #0 {
  %1 = alloca i32, align 4
  %2 = alloca i32, align 4
  %3 = alloca i32, align 4
  %4 = alloca i32, align 4
  %5 = alloca i32, align 4
  %6 = alloca double, align 8
  %7 = alloca double, align 8
  %8 = alloca double, align 8
  %9 = alloca double, align 8
  store i32 0, i32* %1, align 4
  %10 = call i32 (i8*, ...) @__isoc99_scanf(i8* getelementptr inbounds ([3 x i8], [3 x i8]* @.str, i64 0, i64 0), i32* %4)
  store i32 1, i32* %2, align 4
  br label %11

11:                                               ; preds = %40, %0
  %12 = load i32, i32* %2, align 4
  %13 = load i32, i32* %4, align 4
  %14 = icmp sle i32 %12, %13
  br i1 %14, label %15, label %43

15:                                               ; preds = %11
  %16 = call i32 (i8*, ...) @__isoc99_scanf(i8* getelementptr inbounds ([3 x i8], [3 x i8]* @.str, i64 0, i64 0), i32* %5)
  store double 0.000000e+00, double* %6, align 8
  store double 1.000000e+00, double* %7, align 8
  store double 1.000000e+00, double* %8, align 8
  store i32 1, i32* %3, align 4
  br label %17

17:                                               ; preds = %33, %15
  %18 = load i32, i32* %3, align 4
  %19 = load i32, i32* %5, align 4
  %20 = icmp sle i32 %18, %19
  br i1 %20, label %21, label %36

21:                                               ; preds = %17
  %22 = load double, double* %7, align 8
  store double %22, double* %9, align 8
  %23 = load double, double* %7, align 8
  %24 = load double, double* %8, align 8
  %25 = fadd double %23, %24
  store double %25, double* %7, align 8
  %26 = load double, double* %9, align 8
  store double %26, double* %8, align 8
  %27 = load double, double* %6, align 8
  %28 = load double, double* %7, align 8
  %29 = fmul double %28, 1.000000e+00
  %30 = load double, double* %8, align 8
  %31 = fdiv double %29, %30
  %32 = fadd double %27, %31
  store double %32, double* %6, align 8
  br label %33

33:                                               ; preds = %21
  %34 = load i32, i32* %3, align 4
  %35 = add nsw i32 %34, 1
  store i32 %35, i32* %3, align 4
  br label %17

36:                                               ; preds = %17
  %37 = load double, double* %6, align 8
  %38 = call i32 (i8*, ...) @printf(i8* getelementptr inbounds ([5 x i8], [5 x i8]* @.str.1, i64 0, i64 0), double %37)
  %39 = call i32 (i8*, ...) @printf(i8* getelementptr inbounds ([2 x i8], [2 x i8]* @.str.2, i64 0, i64 0))
  br label %40

40:                                               ; preds = %36
  %41 = load i32, i32* %2, align 4
  %42 = add nsw i32 %41, 1
  store i32 %42, i32* %2, align 4
  br label %11

43:                                               ; preds = %11
  ret i32 0
}

declare dso_local i32 @__isoc99_scanf(i8*, ...) #1

declare dso_local i32 @printf(i8*, ...) #1


!llvm.module.flags = !{!0}
!llvm.ident = !{!1}

!0 = !{i32 1, !"wchar_size", i32 4}
!1 = !{!"clang version 10.0.0-4ubuntu1 "}
